target datalayout = "e-m:e-p270:32:32-p271:32:32-p272:64:64-i64:64-i128:128-f80:128-n8:16:32:64-S128"
target triple = "x86_64-pc-linux-gnu"

%struct.Aig_Obj_t_ = type { %union.anon, ptr, ptr, i64, i32, i32, %union.anon.0 }
%union.anon = type { ptr }
%union.anon.0 = type { ptr }
%struct.Fra_Sml_t_ = type { ptr, i32, i32, i32, i32, i32, i32, i32, i32, [0 x i32] }

; Function Attrs: inlinehint nounwind uwtable
define internal ptr @Fra_ObjSim(ptr noundef %0, i32 noundef %1) #2 {
  %3 = alloca ptr, align 8
  %4 = alloca i32, align 4
  store ptr %0, ptr %3, align 8, !tbaa !48
  store i32 %1, ptr %4, align 4, !tbaa !21
  %5 = load ptr, ptr %3, align 8, !tbaa !48
  %6 = getelementptr inbounds nuw %struct.Fra_Sml_t_, ptr %5, i32 0, i32 9
  %7 = getelementptr inbounds [0 x i32], ptr %6, i64 0, i64 0
  %8 = load ptr, ptr %3, align 8, !tbaa !48
  %9 = getelementptr inbounds nuw %struct.Fra_Sml_t_, ptr %8, i32 0, i32 4
  %10 = load i32, ptr %9, align 4, !tbaa !52
  %11 = load i32, ptr %4, align 4, !tbaa !21
  %12 = mul nsw i32 %10, %11
  %13 = sext i32 %12 to i64
  %14 = getelementptr inbounds i32, ptr %7, i64 %13
  ret ptr %14
}

; Function Attrs: nounwind uwtable
define i32 @Fra_ClausSmlNodeIsConst(ptr noundef %0, ptr noundef %1) #0 {
  %3 = alloca i32, align 4
  %4 = alloca ptr, align 8
  %5 = alloca ptr, align 8
  %6 = alloca ptr, align 8
  %7 = alloca i32, align 4
  %8 = alloca i32, align 4
  store ptr %0, ptr %4, align 8, !tbaa !48
  store ptr %1, ptr %5, align 8, !tbaa !23
  call void @llvm.lifetime.start.p0(i64 8, ptr %6) #11
  call void @llvm.lifetime.start.p0(i64 4, ptr %7) #11
  %9 = load ptr, ptr %4, align 8, !tbaa !48
  %10 = load ptr, ptr %5, align 8, !tbaa !23
  %11 = getelementptr inbounds nuw %struct.Aig_Obj_t_, ptr %10, i32 0, i32 5
  %12 = load i32, ptr %11, align 4, !tbaa !28
  %13 = call ptr @Fra_ObjSim(ptr noundef %9, i32 noundef %12)
  store ptr %13, ptr %6, align 8, !tbaa !42
  %14 = load ptr, ptr %4, align 8, !tbaa !48
  %15 = getelementptr inbounds nuw %struct.Fra_Sml_t_, ptr %14, i32 0, i32 5
  %16 = load i32, ptr %15, align 8, !tbaa !99
  store i32 %16, ptr %7, align 4, !tbaa !21
  br label %17

17:                                               ; preds = %32, %2
  %18 = load i32, ptr %7, align 4, !tbaa !21
  %19 = load ptr, ptr %4, align 8, !tbaa !48
  %20 = getelementptr inbounds nuw %struct.Fra_Sml_t_, ptr %19, i32 0, i32 4
  %21 = load i32, ptr %20, align 4, !tbaa !52
  %22 = icmp slt i32 %18, %21
  br i1 %22, label %23, label %35

23:                                               ; preds = %17
  %24 = load ptr, ptr %6, align 8, !tbaa !42
  %25 = load i32, ptr %7, align 4, !tbaa !21
  %26 = sext i32 %25 to i64
  %27 = getelementptr inbounds i32, ptr %24, i64 %26
  %28 = load i32, ptr %27, align 4, !tbaa !21
  %29 = icmp ne i32 %28, 0
  br i1 %29, label %30, label %31

30:                                               ; preds = %23
  store i32 0, ptr %3, align 4
  store i32 1, ptr %8, align 4
  br label %36

31:                                               ; preds = %23
  br label %32

32:                                               ; preds = %31
  %33 = load i32, ptr %7, align 4, !tbaa !21
  %34 = add nsw i32 %33, 1
  store i32 %34, ptr %7, align 4, !tbaa !21
  br label %17, !llvm.loop !100

35:                                               ; preds = %17
  store i32 1, ptr %3, align 4
  store i32 1, ptr %8, align 4
  br label %36

36:                                               ; preds = %35, %30
  call void @llvm.lifetime.end.p0(i64 4, ptr %7) #11
  call void @llvm.lifetime.end.p0(i64 8, ptr %6) #11
  %37 = load i32, ptr %3, align 4
  ret i32 %37
}